target datalayout = "e-m:e-p270:32:32-p271:32:32-p272:64:64-i64:64-i128:128-f80:128-n8:16:32:64-S128"
target triple = "x86_64-pc-linux-gnu"

%"class.llvm::function_ref" = type { ptr, i64 }
%class.anon.417 = type { i8 }

; Function Attrs: mustprogress nounwind uwtable
define internal void @"_ZN4llvm12function_refIFbPKN5clang13CXXRecordDeclEEEC2IZNKS2_20hasAnyDependentBasesEvE3$_0EEOT_PNSt9enable_ifIXntsr3std7is_sameINS_12remove_cvrefIS9_E4typeES6_EE5valueEvE4typeEPNSB_IXooL_ZNSt17integral_constantIbLb0EE5valueEEsr3std14is_convertibleIDTclclsr3stdE7declvalIS9_EEclL_ZSt7declvalIS4_EDTcl9__declvalIS9_ELi0EEEvEEEEbEE5valueEvE4typeE"(ptr noundef nonnull align 8 dereferenceable(16) %0, ptr noundef nonnull align 1 dereferenceable(1) %1, ptr noundef %2, ptr noundef %3) unnamed_addr #0 align 2 {
  %5 = alloca ptr, align 8
  %6 = alloca ptr, align 8
  %7 = alloca ptr, align 8
  %8 = alloca ptr, align 8
  store ptr %0, ptr %5, align 8
  store ptr %1, ptr %6, align 8
  store ptr %2, ptr %7, align 8
  store ptr %3, ptr %8, align 8
  %9 = load ptr, ptr %5, align 8
  %10 = getelementptr inbounds nuw %"class.llvm::function_ref", ptr %9, i32 0, i32 0
  store ptr @"_ZN4llvm12function_refIFbPKN5clang13CXXRecordDeclEEE11callback_fnIZNKS2_20hasAnyDependentBasesEvE3$_0EEblS4_", ptr %10, align 8
  %11 = getelementptr inbounds nuw %"class.llvm::function_ref", ptr %9, i32 0, i32 1
  %12 = load ptr, ptr %6, align 8
  %13 = ptrtoint ptr %12 to i64
  store i64 %13, ptr %11, align 8
  ret void
}

; Function Attrs: mustprogress nounwind uwtable
define dso_local noundef zeroext i1 @_ZNK5clang13CXXRecordDecl20hasAnyDependentBasesEv(ptr noundef nonnull align 8 dereferenceable(144) %0) #0 align 2 {
  %2 = alloca i1, align 1
  %3 = alloca ptr, align 8
  %4 = alloca %"class.llvm::function_ref", align 8
  %5 = alloca %class.anon.417, align 1
  store ptr %0, ptr %3, align 8
  %6 = load ptr, ptr %3, align 8
  %7 = getelementptr inbounds i8, ptr %6, i64 64
  %8 = call noundef zeroext i1 @_ZNK5clang11DeclContext18isDependentContextEv(ptr noundef nonnull align 8 dereferenceable(32) %7)
  br i1 %8, label %10, label %9

9:                                                ; preds = %1
  store i1 false, ptr %2, align 1
  br label %17

10:                                               ; preds = %1
  call void @"_ZN4llvm12function_refIFbPKN5clang13CXXRecordDeclEEEC2IZNKS2_20hasAnyDependentBasesEvE3$_0EEOT_PNSt9enable_ifIXntsr3std7is_sameINS_12remove_cvrefIS9_E4typeES6_EE5valueEvE4typeEPNSB_IXooL_ZNSt17integral_constantIbLb0EE5valueEEsr3std14is_convertibleIDTclclsr3stdE7declvalIS9_EEclL_ZSt7declvalIS4_EDTcl9__declvalIS9_ELi0EEEvEEEEbEE5valueEvE4typeE"(ptr noundef nonnull align 8 dereferenceable(16) %4, ptr noundef nonnull align 1 dereferenceable(1) %5, ptr noundef null, ptr noundef null)
  %11 = getelementptr inbounds nuw { ptr, i64 }, ptr %4, i32 0, i32 0
  %12 = load ptr, ptr %11, align 8
  %13 = getelementptr inbounds nuw { ptr, i64 }, ptr %4, i32 0, i32 1
  %14 = load i64, ptr %13, align 8
  %15 = call noundef zeroext i1 @_ZNK5clang13CXXRecordDecl11forallBasesEN4llvm12function_refIFbPKS0_EEE(ptr noundef nonnull align 8 dereferenceable(144) %6, ptr %12, i64 %14)
  %16 = xor i1 %15, true
  store i1 %16, ptr %2, align 1
  br label %17

17:                                               ; preds = %10, %9
  %18 = load i1, ptr %2, align 1
  ret i1 %18
}