; Function Attrs: mustprogress nounwind uwtable
define dso_local noundef zeroext i1 @_ZNK5clang13CXXRecordDecl20hasAnyDependentBasesEv(ptr noundef nonnull align 8 dereferenceable(144) %0) local_unnamed_addr #1 align 2 {
  %2 = alloca %class.anon.417, align 1
  %3 = getelementptr inbounds nuw i8, ptr %0, i64 64
  %4 = tail call noundef zeroext i1 @_ZNK5clang11DeclContext18isDependentContextEv(ptr noundef nonnull align 8 dereferenceable(32) %3) #25
  br i1 %4, label %5, label %9

5:                                                ; preds = %1
  %6 = ptrtoint ptr %2 to i64
  %7 = call noundef zeroext i1 @_ZNK5clang13CXXRecordDecl11forallBasesEN4llvm12function_refIFbPKS0_EEE(ptr noundef nonnull align 8 dereferenceable(144) %0, ptr nonnull @"_ZN4llvm12function_refIFbPKN5clang13CXXRecordDeclEEE11callback_fnIZNKS2_20hasAnyDependentBasesEvE3$_0EEblS4_", i64 %6) #25
  %8 = xor i1 %7, true
  br label %9

9:                                                ; preds = %1, %5
  %.0 = phi i1 [ %8, %5 ], [ false, %1 ]
  ret i1 %.0
}